; ModuleID = 'bench/gromacs/original/checkpointhandler.ll'
source_filename = "bench/gromacs/original/checkpointhandler.ll"
target datalayout = "e-m:e-p270:32:32-p271:32:32-p272:64:64-i64:64-i128:128-f80:128-n8:16:32:64-S128"
target triple = "x86_64-pc-linux-gnu"

@_ZN3gmx17CheckpointHandlerC1ENS_6compat8not_nullIPNS_16SimulationSignalEEEbbbbf = unnamed_addr alias void (ptr, ptr, i1, i1, i1, i1, float), ptr @_ZN3gmx17CheckpointHandlerC2ENS_6compat8not_nullIPNS_16SimulationSignalEEEbbbbf

; Function Attrs: mustprogress nofree norecurse nosync nounwind willreturn memory(argmem: write) uwtable
define void @_ZN3gmx17CheckpointHandlerC2ENS_6compat8not_nullIPNS_16SimulationSignalEEEbbbbf(ptr noundef nonnull writeonly align 8 captures(none) dereferenceable(24) initializes((0, 9), (12, 24)) %0, ptr %1, i1 noundef zeroext %2, i1 noundef zeroext %3, i1 noundef zeroext %4, i1 noundef zeroext %5, float noundef %6) unnamed_addr #0 align 2 {
  %8 = zext i1 %3 to i8
  %9 = zext i1 %5 to i8
  store ptr %1, ptr %0, align 8, !tbaa !4
  %10 = getelementptr inbounds nuw i8, ptr %0, i64 8
  store i8 0, ptr %10, align 8, !tbaa !9
  %11 = getelementptr inbounds nuw i8, ptr %0, i64 12
  store i32 1, ptr %11, align 4, !tbaa !14
  %12 = getelementptr inbounds nuw i8, ptr %0, i64 16
  %13 = fcmp oge float %6, 0.000000e+00
  %14 = and i1 %4, %13
  %15 = zext i1 %14 to i8
  store i8 %15, ptr %12, align 8, !tbaa !15
  %16 = getelementptr inbounds nuw i8, ptr %0, i64 17
  %17 = zext i1 %13 to i8
  store i8 %17, ptr %16, align 1, !tbaa !16
  %18 = getelementptr inbounds nuw i8, ptr %0, i64 18
  store i8 %9, ptr %18, align 2, !tbaa !17
  %19 = getelementptr inbounds nuw i8, ptr %0, i64 19
  store i8 %8, ptr %19, align 1, !tbaa !18
  %20 = getelementptr inbounds nuw i8, ptr %0, i64 20
  store float %6, ptr %20, align 4, !tbaa !19
  br i1 %2, label %21, label %23

21:                                               ; preds = %7
  %22 = getelementptr inbounds nuw i8, ptr %1, i64 2
  store i8 0, ptr %22, align 1, !tbaa !20
  br label %23

23:                                               ; preds = %21, %7
  ret void
}

; Function Attrs: mustprogress uwtable
define void @_ZNK3gmx17CheckpointHandler13setSignalImplEP23gmx_walltime_accounting(ptr noundef nonnull readonly align 8 captures(none) dereferenceable(24) %0, ptr noundef %1) local_unnamed_addr #1 align 2 {
  %3 = tail call noundef double @_Z40walltime_accounting_get_time_since_startP23gmx_walltime_accounting(ptr noundef %1)
  %4 = load ptr, ptr %0, align 8, !tbaa !22
  %5 = getelementptr inbounds nuw i8, ptr %4, i64 1
  %6 = load i8, ptr %5, align 1, !tbaa !23
  %7 = icmp slt i8 %6, 1
  br i1 %7, label %8, label %24

8:                                                ; preds = %2
  %9 = load i8, ptr %4, align 1, !tbaa !24
  %10 = icmp slt i8 %9, 1
  br i1 %10, label %11, label %24

11:                                               ; preds = %8
  %12 = getelementptr inbounds nuw i8, ptr %0, i64 20
  %13 = load float, ptr %12, align 4, !tbaa !19
  %14 = fcmp oeq float %13, 0.000000e+00
  br i1 %14, label %23, label %15

15:                                               ; preds = %11
  %16 = getelementptr inbounds nuw i8, ptr %0, i64 12
  %17 = load i32, ptr %16, align 4, !tbaa !14
  %18 = sitofp i32 %17 to float
  %19 = fmul float %13, %18
  %20 = fpext float %19 to double
  %21 = fmul double %20, 6.000000e+01
  %22 = fcmp ult double %3, %21
  br i1 %22, label %24, label %23

23:                                               ; preds = %15, %11
  store i8 1, ptr %4, align 1, !tbaa !24
  br label %24

24:                                               ; preds = %23, %15, %8, %2
  ret void
}

declare noundef double @_Z40walltime_accounting_get_time_since_startP23gmx_walltime_accounting(ptr noundef) local_unnamed_addr #2

; Function Attrs: mustprogress nofree norecurse nosync nounwind willreturn memory(readwrite, inaccessiblemem: none) uwtable
define void @_ZN3gmx17CheckpointHandler33decideIfCheckpointingThisStepImplEbbb(ptr noundef nonnull align 8 captures(none) dereferenceable(24) initializes((8, 9)) %0, i1 noundef zeroext %1, i1 noundef zeroext %2, i1 noundef zeroext %3) local_unnamed_addr #3 align 2 {
  %5 = load ptr, ptr %0, align 8, !tbaa !22
  %6 = getelementptr inbounds nuw i8, ptr %5, i64 1
  %7 = load i8, ptr %6, align 1, !tbaa !23
  %8 = icmp slt i8 %7, 1
  br i1 %8, label %14, label %9

9:                                                ; preds = %4
  br i1 %1, label %19, label %10

10:                                               ; preds = %9
  %11 = getelementptr inbounds nuw i8, ptr %0, i64 19
  %12 = load i8, ptr %11, align 1, !tbaa !18, !range !25, !noundef !26
  %13 = trunc nuw i8 %12 to i1
  br i1 %13, label %19, label %14

14:                                               ; preds = %10, %4
  br i1 %3, label %15, label %.critedge

15:                                               ; preds = %14
  %16 = getelementptr inbounds nuw i8, ptr %0, i64 18
  %17 = load i8, ptr %16, align 2, !tbaa !17, !range !25, !noundef !26
  %18 = trunc nuw i8 %17 to i1
  br i1 %18, label %19, label %.critedge

19:                                               ; preds = %15, %10, %9
  %20 = xor i1 %2, true
  %21 = getelementptr inbounds nuw i8, ptr %0, i64 8
  %22 = zext i1 %20 to i8
  store i8 %22, ptr %21, align 8, !tbaa !9
  br i1 %2, label %28, label %23

23:                                               ; preds = %19
  store i8 0, ptr %6, align 1, !tbaa !23
  %24 = getelementptr inbounds nuw i8, ptr %0, i64 12
  %25 = load i32, ptr %24, align 4, !tbaa !14
  %26 = add nsw i32 %25, 1
  store i32 %26, ptr %24, align 4, !tbaa !14
  br label %28

.critedge:                                        ; preds = %14, %15
  %27 = getelementptr inbounds nuw i8, ptr %0, i64 8
  store i8 0, ptr %27, align 8, !tbaa !9
  br label %28

28:                                               ; preds = %.critedge, %23, %19
  ret void
}


!llvm.module.flags = !{!0, !1, !2, !3}

!0 = !{i32 1, !"wchar_size", i32 4}
!1 = !{i32 7, !"openmp", i32 51}
!2 = !{i32 8, !"PIC Level", i32 2}
!3 = !{i32 7, !"uwtable", i32 2}
!4 = !{!5, !5, i64 0}
!5 = !{!"p1 _ZTSN3gmx16SimulationSignalE", !6, i64 0}
!6 = !{!"any pointer", !7, i64 0}
!7 = !{!"omnipotent char", !8, i64 0}
!8 = !{!"Simple C++ TBAA"}
!9 = !{!10, !11, i64 8}
!10 = !{!"_ZTSN3gmx17CheckpointHandlerE", !5, i64 0, !11, i64 8, !12, i64 12, !11, i64 16, !11, i64 17, !11, i64 18, !11, i64 19, !13, i64 20}
!11 = !{!"bool", !7, i64 0}
!12 = !{!"int", !7, i64 0}
!13 = !{!"float", !7, i64 0}
!14 = !{!10, !12, i64 12}
!15 = !{!10, !11, i64 16}
!16 = !{!10, !11, i64 17}
!17 = !{!10, !11, i64 18}
!18 = !{!10, !11, i64 19}
!19 = !{!10, !13, i64 20}
!20 = !{!21, !11, i64 2}
!21 = !{!"_ZTSN3gmx16SimulationSignalE", !7, i64 0, !7, i64 1, !11, i64 2}
!22 = !{!10, !5, i64 0}
!23 = !{!21, !7, i64 1}
!24 = !{!21, !7, i64 0}
!25 = !{i8 0, i8 2}
!26 = !{}
